((dp1
Vether.publishers.amqp
p2
(dp3
S'funcs'
p4
(lp5
sS'classes'
p6
(dp7
ssVether.hooks.svn
p8
(dp9
g4
(lp10
sg6
(dp11
ssVdocclass
p12
(dp13
g4
(lp14
sg6
(dp15
ssVether.hooks.git
p16
(dp17
g4
(lp18
sg6
(dp19
ssVether.consumers.amqp
p20
(dp21
g4
(lp22
sg6
(dp23
S'AsyncAMQPConsumer'
p24
(lp25
S'process_payload'
p26
aS'receive_payload'
p27
asssVether.publishers.log
p28
(dp29
g4
(lp30
sg6
(dp31
ss(dp32
t.